target datalayout = "e-m:e-p270:32:32-p271:32:32-p272:64:64-i64:64-i128:128-f80:128-n8:16:32:64-S128"
target triple = "x86_64-pc-linux-gnu"

%struct.WebPDecParams = type { ptr, ptr, ptr, ptr, i32, ptr, ptr, ptr, ptr, ptr, ptr, ptr, ptr, ptr }
%struct.WebPDecBuffer = type { i32, i32, i32, i32, %union.anon, [4 x i32], ptr }
%union.anon = type { %struct.WebPYUVABuffer }
%struct.WebPYUVABuffer = type { ptr, ptr, ptr, ptr, i32, i32, i32, i32, i64, i64, i64, i64 }
%struct.WebPRescaler = type { i32, i32, i32, i32, i32, i32, i32, i32, i32, i32, i32, i32, i32, i32, i32, i32, i32, ptr, i32, ptr, ptr }
%struct.WebPRGBABuffer = type { ptr, i32, i64 }

@WebPDispatchAlpha = external global ptr, align 8
@WebPApplyAlphaMultiply = external global ptr, align 8

; Function Attrs: inlinehint nounwind uwtable
define internal i32 @WebPRescalerOutputDone(ptr noundef %0) #2 {
  %2 = alloca ptr, align 8
  store ptr %0, ptr %2, align 8, !tbaa !45
  %3 = load ptr, ptr %2, align 8, !tbaa !45
  %4 = getelementptr inbounds nuw %struct.WebPRescaler, ptr %3, i32 0, i32 16
  %5 = load i32, ptr %4, align 8, !tbaa !95
  %6 = load ptr, ptr %2, align 8, !tbaa !45
  %7 = getelementptr inbounds nuw %struct.WebPRescaler, ptr %6, i32 0, i32 14
  %8 = load i32, ptr %7, align 8, !tbaa !96
  %9 = icmp sge i32 %5, %8
  %10 = zext i1 %9 to i32
  ret i32 %10
}

; Function Attrs: inlinehint nounwind uwtable
define internal i32 @WebPRescalerHasPendingOutput(ptr noundef %0) #2 {
  %2 = alloca ptr, align 8
  store ptr %0, ptr %2, align 8, !tbaa !45
  %3 = load ptr, ptr %2, align 8, !tbaa !45
  %4 = call i32 @WebPRescalerOutputDone(ptr noundef %3)
  %5 = icmp ne i32 %4, 0
  br i1 %5, label %11, label %6

6:                                                ; preds = %1
  %7 = load ptr, ptr %2, align 8, !tbaa !45
  %8 = getelementptr inbounds nuw %struct.WebPRescaler, ptr %7, i32 0, i32 6
  %9 = load i32, ptr %8, align 8, !tbaa !94
  %10 = icmp sle i32 %9, 0
  br label %11

11:                                               ; preds = %6, %1
  %12 = phi i1 [ false, %1 ], [ %10, %6 ]
  %13 = zext i1 %12 to i32
  ret i32 %13
}

; Function Attrs: inlinehint nounwind uwtable
define internal i32 @WebPIsPremultipliedMode(i32 noundef %0) #2 {
  %2 = alloca i32, align 4
  store i32 %0, ptr %2, align 4, !tbaa !19
  %3 = load i32, ptr %2, align 4, !tbaa !19
  %4 = icmp eq i32 %3, 7
  br i1 %4, label %14, label %5

5:                                                ; preds = %1
  %6 = load i32, ptr %2, align 4, !tbaa !19
  %7 = icmp eq i32 %6, 8
  br i1 %7, label %14, label %8

8:                                                ; preds = %5
  %9 = load i32, ptr %2, align 4, !tbaa !19
  %10 = icmp eq i32 %9, 9
  br i1 %10, label %14, label %11

11:                                               ; preds = %8
  %12 = load i32, ptr %2, align 4, !tbaa !19
  %13 = icmp eq i32 %12, 10
  br label %14

14:                                               ; preds = %11, %8, %5, %1
  %15 = phi i1 [ true, %8 ], [ true, %5 ], [ true, %1 ], [ %13, %11 ]
  %16 = zext i1 %15 to i32
  ret i32 %16
}

; Function Attrs: nounwind uwtable
define internal i32 @ExportAlpha(ptr noundef %0, i32 noundef %1, i32 noundef %2) #0 {
  %4 = alloca ptr, align 8
  %5 = alloca i32, align 4
  %6 = alloca i32, align 4
  %7 = alloca ptr, align 8
  %8 = alloca ptr, align 8
  %9 = alloca i32, align 4
  %10 = alloca i32, align 4
  %11 = alloca ptr, align 8
  %12 = alloca i32, align 4
  %13 = alloca i32, align 4
  %14 = alloca i32, align 4
  %15 = alloca i32, align 4
  store ptr %0, ptr %4, align 8, !tbaa !3
  store i32 %1, ptr %5, align 4, !tbaa !19
  store i32 %2, ptr %6, align 4, !tbaa !19
  call void @llvm.lifetime.start.p0(i64 8, ptr %7) #6
  %16 = load ptr, ptr %4, align 8, !tbaa !3
  %17 = getelementptr inbounds nuw %struct.WebPDecParams, ptr %16, i32 0, i32 0
  %18 = load ptr, ptr %17, align 8, !tbaa !28
  %19 = getelementptr inbounds nuw %struct.WebPDecBuffer, ptr %18, i32 0, i32 4
  store ptr %19, ptr %7, align 8, !tbaa !62
  call void @llvm.lifetime.start.p0(i64 8, ptr %8) #6
  %20 = load ptr, ptr %7, align 8, !tbaa !62
  %21 = getelementptr inbounds nuw %struct.WebPRGBABuffer, ptr %20, i32 0, i32 0
  %22 = load ptr, ptr %21, align 8, !tbaa !64
  %23 = load i32, ptr %5, align 4, !tbaa !19
  %24 = sext i32 %23 to i64
  %25 = load ptr, ptr %7, align 8, !tbaa !62
  %26 = getelementptr inbounds nuw %struct.WebPRGBABuffer, ptr %25, i32 0, i32 1
  %27 = load i32, ptr %26, align 8, !tbaa !67
  %28 = sext i32 %27 to i64
  %29 = mul nsw i64 %24, %28
  %30 = getelementptr inbounds i8, ptr %22, i64 %29
  store ptr %30, ptr %8, align 8, !tbaa !44
  call void @llvm.lifetime.start.p0(i64 4, ptr %9) #6
  %31 = load ptr, ptr %4, align 8, !tbaa !3
  %32 = getelementptr inbounds nuw %struct.WebPDecParams, ptr %31, i32 0, i32 0
  %33 = load ptr, ptr %32, align 8, !tbaa !28
  %34 = getelementptr inbounds nuw %struct.WebPDecBuffer, ptr %33, i32 0, i32 0
  %35 = load i32, ptr %34, align 8, !tbaa !29
  store i32 %35, ptr %9, align 4, !tbaa !19
  call void @llvm.lifetime.start.p0(i64 4, ptr %10) #6
  %36 = load i32, ptr %9, align 4, !tbaa !19
  %37 = icmp eq i32 %36, 4
  br i1 %37, label %41, label %38

38:                                               ; preds = %3
  %39 = load i32, ptr %9, align 4, !tbaa !19
  %40 = icmp eq i32 %39, 9
  br label %41

41:                                               ; preds = %38, %3
  %42 = phi i1 [ true, %3 ], [ %40, %38 ]
  %43 = zext i1 %42 to i32
  store i32 %43, ptr %10, align 4, !tbaa !19
  call void @llvm.lifetime.start.p0(i64 8, ptr %11) #6
  %44 = load ptr, ptr %8, align 8, !tbaa !44
  %45 = load i32, ptr %10, align 4, !tbaa !19
  %46 = icmp ne i32 %45, 0
  %47 = select i1 %46, i32 0, i32 3
  %48 = sext i32 %47 to i64
  %49 = getelementptr inbounds i8, ptr %44, i64 %48
  store ptr %49, ptr %11, align 8, !tbaa !44
  call void @llvm.lifetime.start.p0(i64 4, ptr %12) #6
  store i32 0, ptr %12, align 4, !tbaa !19
  call void @llvm.lifetime.start.p0(i64 4, ptr %13) #6
  %50 = load i32, ptr %9, align 4, !tbaa !19
  %51 = call i32 @WebPIsPremultipliedMode(i32 noundef %50)
  store i32 %51, ptr %13, align 4, !tbaa !19
  call void @llvm.lifetime.start.p0(i64 4, ptr %14) #6
  store i32 0, ptr %14, align 4, !tbaa !19
  call void @llvm.lifetime.start.p0(i64 4, ptr %15) #6
  %52 = load ptr, ptr %4, align 8, !tbaa !3
  %53 = getelementptr inbounds nuw %struct.WebPDecParams, ptr %52, i32 0, i32 9
  %54 = load ptr, ptr %53, align 8, !tbaa !49
  %55 = getelementptr inbounds nuw %struct.WebPRescaler, ptr %54, i32 0, i32 13
  %56 = load i32, ptr %55, align 4, !tbaa !88
  store i32 %56, ptr %15, align 4, !tbaa !19
  br label %57

57:                                               ; preds = %69, %41
  %58 = load ptr, ptr %4, align 8, !tbaa !3
  %59 = getelementptr inbounds nuw %struct.WebPDecParams, ptr %58, i32 0, i32 9
  %60 = load ptr, ptr %59, align 8, !tbaa !49
  %61 = call i32 @WebPRescalerHasPendingOutput(ptr noundef %60)
  %62 = icmp ne i32 %61, 0
  br i1 %62, label %63, label %67

63:                                               ; preds = %57
  %64 = load i32, ptr %12, align 4, !tbaa !19
  %65 = load i32, ptr %6, align 4, !tbaa !19
  %66 = icmp slt i32 %64, %65
  br label %67

67:                                               ; preds = %63, %57
  %68 = phi i1 [ false, %57 ], [ %66, %63 ]
  br i1 %68, label %69, label %92

69:                                               ; preds = %67
  %70 = load ptr, ptr %4, align 8, !tbaa !3
  %71 = getelementptr inbounds nuw %struct.WebPDecParams, ptr %70, i32 0, i32 9
  %72 = load ptr, ptr %71, align 8, !tbaa !49
  call void @WebPRescalerExportRow(ptr noundef %72)
  %73 = load ptr, ptr @WebPDispatchAlpha, align 8, !tbaa !73
  %74 = load ptr, ptr %4, align 8, !tbaa !3
  %75 = getelementptr inbounds nuw %struct.WebPDecParams, ptr %74, i32 0, i32 9
  %76 = load ptr, ptr %75, align 8, !tbaa !49
  %77 = getelementptr inbounds nuw %struct.WebPRescaler, ptr %76, i32 0, i32 17
  %78 = load ptr, ptr %77, align 8, !tbaa !89
  %79 = load i32, ptr %15, align 4, !tbaa !19
  %80 = load ptr, ptr %11, align 8, !tbaa !44
  %81 = call i32 %73(ptr noundef %78, i32 noundef 0, i32 noundef %79, i32 noundef 1, ptr noundef %80, i32 noundef 0)
  %82 = load i32, ptr %14, align 4, !tbaa !19
  %83 = or i32 %82, %81
  store i32 %83, ptr %14, align 4, !tbaa !19
  %84 = load ptr, ptr %7, align 8, !tbaa !62
  %85 = getelementptr inbounds nuw %struct.WebPRGBABuffer, ptr %84, i32 0, i32 1
  %86 = load i32, ptr %85, align 8, !tbaa !67
  %87 = load ptr, ptr %11, align 8, !tbaa !44
  %88 = sext i32 %86 to i64
  %89 = getelementptr inbounds i8, ptr %87, i64 %88
  store ptr %89, ptr %11, align 8, !tbaa !44
  %90 = load i32, ptr %12, align 4, !tbaa !19
  %91 = add nsw i32 %90, 1
  store i32 %91, ptr %12, align 4, !tbaa !19
  br label %57, !llvm.loop !92

92:                                               ; preds = %67
  %93 = load i32, ptr %13, align 4, !tbaa !19
  %94 = icmp ne i32 %93, 0
  br i1 %94, label %95, label %107

95:                                               ; preds = %92
  %96 = load i32, ptr %14, align 4, !tbaa !19
  %97 = icmp ne i32 %96, 0
  br i1 %97, label %98, label %107

98:                                               ; preds = %95
  %99 = load ptr, ptr @WebPApplyAlphaMultiply, align 8, !tbaa !73
  %100 = load ptr, ptr %8, align 8, !tbaa !44
  %101 = load i32, ptr %10, align 4, !tbaa !19
  %102 = load i32, ptr %15, align 4, !tbaa !19
  %103 = load i32, ptr %12, align 4, !tbaa !19
  %104 = load ptr, ptr %7, align 8, !tbaa !62
  %105 = getelementptr inbounds nuw %struct.WebPRGBABuffer, ptr %104, i32 0, i32 1
  %106 = load i32, ptr %105, align 8, !tbaa !67
  call void %99(ptr noundef %100, i32 noundef %101, i32 noundef %102, i32 noundef %103, i32 noundef %106)
  br label %107

107:                                              ; preds = %98, %95, %92
  %108 = load i32, ptr %12, align 4, !tbaa !19
  call void @llvm.lifetime.end.p0(i64 4, ptr %15) #6
  call void @llvm.lifetime.end.p0(i64 4, ptr %14) #6
  call void @llvm.lifetime.end.p0(i64 4, ptr %13) #6
  call void @llvm.lifetime.end.p0(i64 4, ptr %12) #6
  call void @llvm.lifetime.end.p0(i64 8, ptr %11) #6
  call void @llvm.lifetime.end.p0(i64 4, ptr %10) #6
  call void @llvm.lifetime.end.p0(i64 4, ptr %9) #6
  call void @llvm.lifetime.end.p0(i64 8, ptr %8) #6
  call void @llvm.lifetime.end.p0(i64 8, ptr %7) #6
  ret i32 %108
}