; Function Attrs: nounwind uwtable
define internal i32 @ExportAlpha(ptr noundef readonly captures(none) %0, i32 noundef %1, i32 noundef %2) #1 {
  %4 = load ptr, ptr %0, align 8, !tbaa !23
  %5 = getelementptr inbounds nuw i8, ptr %4, i64 16
  %6 = load ptr, ptr %5, align 8, !tbaa !49
  %7 = sext i32 %1 to i64
  %8 = getelementptr inbounds nuw i8, ptr %4, i64 24
  %9 = load i32, ptr %8, align 8, !tbaa !52
  %10 = sext i32 %9 to i64
  %11 = mul nsw i64 %10, %7
  %12 = getelementptr inbounds i8, ptr %6, i64 %11
  %13 = load i32, ptr %4, align 8, !tbaa !24
  %14 = icmp eq i32 %13, 4
  %15 = icmp eq i32 %13, 9
  %16 = or i1 %14, %15
  %17 = zext i1 %16 to i32
  %18 = add i32 %13, -7
  %narrow.i = icmp ult i32 %18, 4
  %19 = getelementptr inbounds nuw i8, ptr %0, i64 72
  %20 = load ptr, ptr %19, align 8, !tbaa !34
  %21 = getelementptr inbounds nuw i8, ptr %20, i64 52
  %22 = load i32, ptr %21, align 4, !tbaa !76
  %23 = getelementptr i8, ptr %20, i64 56
  %.val.i32 = load i32, ptr %23, align 8, !tbaa !70
  %24 = getelementptr i8, ptr %20, i64 64
  %.val2.i33 = load i32, ptr %24, align 8, !tbaa !73
  %.not3.i34 = icmp slt i32 %.val2.i33, %.val.i32
  br i1 %.not3.i34, label %WebPRescalerHasPendingOutput.exit.preheader, label %WebPRescalerHasPendingOutput.exit.thread.thread

WebPRescalerHasPendingOutput.exit.preheader:      ; preds = %3
  %25 = getelementptr inbounds nuw i8, ptr %20, i64 24
  %26 = load i32, ptr %25, align 8, !tbaa !74
  %27 = icmp slt i32 %26, 1
  %28 = icmp sgt i32 %2, 0
  %29 = and i1 %27, %28
  br i1 %29, label %.lr.ph, label %WebPRescalerHasPendingOutput.exit.thread

.lr.ph:                                           ; preds = %WebPRescalerHasPendingOutput.exit.preheader
  %30 = select i1 %16, i64 0, i64 3
  %31 = getelementptr inbounds nuw i8, ptr %12, i64 %30
  br label %39

WebPRescalerHasPendingOutput.exit:                ; preds = %39
  %32 = sext i32 %47 to i64
  %33 = getelementptr inbounds i8, ptr %.03745, i64 %32
  %34 = getelementptr inbounds nuw i8, ptr %49, i64 24
  %35 = load i32, ptr %34, align 8, !tbaa !74
  %36 = icmp slt i32 %35, 1
  %37 = icmp slt i32 %48, %2
  %38 = select i1 %36, i1 %37, i1 false
  br i1 %38, label %39, label %WebPRescalerHasPendingOutput.exit.thread.loopexit, !llvm.loop !83

39:                                               ; preds = %.lr.ph, %WebPRescalerHasPendingOutput.exit
  %.0313547 = phi i32 [ 0, %.lr.ph ], [ %48, %WebPRescalerHasPendingOutput.exit ]
  %.0303646 = phi i32 [ 0, %.lr.ph ], [ %46, %WebPRescalerHasPendingOutput.exit ]
  %.03745 = phi ptr [ %31, %.lr.ph ], [ %33, %WebPRescalerHasPendingOutput.exit ]
  %40 = phi ptr [ %20, %.lr.ph ], [ %49, %WebPRescalerHasPendingOutput.exit ]
  tail call void @WebPRescalerExportRow(ptr noundef nonnull %40) #6
  %41 = load ptr, ptr @WebPDispatchAlpha, align 8, !tbaa !58
  %42 = load ptr, ptr %19, align 8, !tbaa !34
  %43 = getelementptr inbounds nuw i8, ptr %42, i64 72
  %44 = load ptr, ptr %43, align 8, !tbaa !75
  %45 = tail call i32 %41(ptr noundef %44, i32 noundef 0, i32 noundef %22, i32 noundef 1, ptr noundef %.03745, i32 noundef 0) #6
  %46 = or i32 %45, %.0303646
  %47 = load i32, ptr %8, align 8, !tbaa !52
  %48 = add nuw nsw i32 %.0313547, 1
  %49 = load ptr, ptr %19, align 8, !tbaa !34
  %50 = getelementptr i8, ptr %49, i64 56
  %.val.i = load i32, ptr %50, align 8, !tbaa !70
  %51 = getelementptr i8, ptr %49, i64 64
  %.val2.i = load i32, ptr %51, align 8, !tbaa !73
  %.not3.i = icmp slt i32 %.val2.i, %.val.i
  br i1 %.not3.i, label %WebPRescalerHasPendingOutput.exit, label %WebPRescalerHasPendingOutput.exit.thread.loopexit, !llvm.loop !83

WebPRescalerHasPendingOutput.exit.thread.loopexit: ; preds = %WebPRescalerHasPendingOutput.exit, %39
  %52 = icmp ne i32 %46, 0
  br label %WebPRescalerHasPendingOutput.exit.thread

WebPRescalerHasPendingOutput.exit.thread:         ; preds = %WebPRescalerHasPendingOutput.exit.thread.loopexit, %WebPRescalerHasPendingOutput.exit.preheader
  %53 = phi i32 [ %9, %WebPRescalerHasPendingOutput.exit.preheader ], [ %47, %WebPRescalerHasPendingOutput.exit.thread.loopexit ]
  %.031.lcssa.ph = phi i32 [ 0, %WebPRescalerHasPendingOutput.exit.preheader ], [ %48, %WebPRescalerHasPendingOutput.exit.thread.loopexit ]
  %.030.lcssa.ph = phi i1 [ false, %WebPRescalerHasPendingOutput.exit.preheader ], [ %52, %WebPRescalerHasPendingOutput.exit.thread.loopexit ]
  %or.cond = select i1 %narrow.i, i1 %.030.lcssa.ph, i1 false
  br i1 %or.cond, label %54, label %WebPRescalerHasPendingOutput.exit.thread.thread

54:                                               ; preds = %WebPRescalerHasPendingOutput.exit.thread
  %55 = load ptr, ptr @WebPApplyAlphaMultiply, align 8, !tbaa !58
  tail call void %55(ptr noundef %12, i32 noundef %17, i32 noundef %22, i32 noundef %.031.lcssa.ph, i32 noundef %53) #6
  br label %WebPRescalerHasPendingOutput.exit.thread.thread

WebPRescalerHasPendingOutput.exit.thread.thread:  ; preds = %3, %54, %WebPRescalerHasPendingOutput.exit.thread
  %.031.lcssa44 = phi i32 [ %.031.lcssa.ph, %54 ], [ %.031.lcssa.ph, %WebPRescalerHasPendingOutput.exit.thread ], [ 0, %3 ]
  ret i32 %.031.lcssa44
}